; Function Attrs: mustprogress uwtable
define noundef zeroext i1 @_ZN5folly14AsyncUDPSocket6setGSOEi(ptr noundef nonnull align 16 captures(none) dereferenceable(768) initializes((332, 336)) %0, i32 noundef %1) local_unnamed_addr #1 align 2 {
  %3 = alloca i32, align 4
  store i32 %1, ptr %3, align 4, !tbaa !34
  %4 = getelementptr inbounds nuw i8, ptr %0, i64 240
  %.sroa.0.0.copyload = load i32, ptr %4, align 16, !tbaa !34
  %5 = call noundef i32 @_ZN5folly6netops10setsockoptENS_13NetworkSocketEiiPKvj(i32 %.sroa.0.0.copyload, i32 noundef 17, i32 noundef 103, ptr noundef nonnull %3, i32 noundef 4)
  %6 = load i32, ptr %3, align 4
  %7 = getelementptr inbounds nuw i8, ptr %0, i64 336
  %8 = load i8, ptr %7, align 16, !tbaa !173, !range !21, !noundef !22
  %9 = trunc nuw i8 %8 to i1
  br i1 %9, label %_ZN5folly8OptionalIiEaSIiEERS1_OT_.exit, label %10

10:                                               ; preds = %2
  store i8 1, ptr %7, align 16, !tbaa !173
  br label %_ZN5folly8OptionalIiEaSIiEERS1_OT_.exit

_ZN5folly8OptionalIiEaSIiEERS1_OT_.exit:          ; preds = %2, %10
  %11 = getelementptr inbounds nuw i8, ptr %0, i64 332
  %.not = icmp eq i32 %5, 0
  %12 = select i1 %.not, i32 %6, i32 -1
  store i32 %12, ptr %11, align 4, !tbaa !33
  ret i1 %.not
}